Certificate:
    Data:
        Version: 1 (0x0)
        Serial Number: 4660 (0x1234)
    Signature Algorithm: md5WithRSAEncryption
        Issuer: C=pl, ST=sl, L=ka, CN=test.pl/emailAddress=test@test.pl
        Validity
            Not Before: Jul  2 12:52:50 2020 GMT
            Not After : Jul  2 12:52:50 2021 GMT
        Subject: C=pl, ST=sl, L=ka, CN=test.pl/emailAddress=test@test.pl
        Subject Public Key Info:
            Public Key Algorithm: rsaEncryption
                Public-Key: (1024 bit)
                Modulus:
                    00:d1:b1:e3:ff:f3:58:06:84:8f:e5:c9:e1:1c:8f:
                    5b:b1:6f:6c:64:65:00:fe:6e:25:2e:46:01:87:27:
                    d9:85:85:db:34:c0:00:33:6c:15:78:73:96:2a:d3:
                    2f:35:82:c1:80:bb:9c:eb:c0:9f:82:da:e1:bd:2a:
                    f7:6a:03:4b:40:7d:33:af:3d:42:4a:f8:8e:c2:7f:
                    de:3a:c9:22:e0:ce:22:1f:b8:5b:a2:91:88:5f:03:
                    40:c7:59:2d:cf:08:53:11:56:58:b4:4e:0d:fb:1a:
                    a7:72:dc:1d:cd:69:2e:de:1e:de:7b:b9:a3:90:bb:
                    ed:4c:17:19:e0:7d:25:46:83
                Exponent: 65537 (0x10001)
    Signature Algorithm: md5WithRSAEncryption
         c2:2b:27:eb:f8:ca:c0:a9:c7:cd:ec:b7:65:41:73:91:7f:04:
         24:8f:eb:be:76:1e:26:15:e7:d5:03:34:f0:7f:71:5d:4e:6e:
         49:ec:94:91:70:a3:59:cf:e1:04:7c:b5:c0:80:fe:45:47:c1:
         86:a0:d9:07:1c:39:3b:99:a3:8e:b7:18:96:2a:a0:04:62:c1:
         8e:71:2c:ee:2d:06:e8:2c:a0:ef:68:f9:d8:ea:0c:86:64:06:
         8a:28:1b:b1:b0:a6:2b:eb:e9:21:54:8c:b4:b2:c5:f1:98:42:
         38:de:cb:6b:fc:e5:91:38:af:dc:3b:bc:7c:e3:2e:ac:56:90:
         59:09
-----BEGIN CERTIFICATE-----
MIICHDCCAYUCAhI0MA0GCSqGSIb3DQEBBAUAMFYxCzAJBgNVBAYTAnBsMQswCQYD
VQQIDAJzbDELMAkGA1UEBwwCa2ExEDAOBgNVBAMMB3Rlc3QucGwxGzAZBgkqhkiG
9w0BCQEWDHRlc3RAdGVzdC5wbDAeFw0yMDA3MDIxMjUyNTBaFw0yMTA3MDIxMjUy
NTBaMFYxCzAJBgNVBAYTAnBsMQswCQYDVQQIDAJzbDELMAkGA1UEBwwCa2ExEDAO
BgNVBAMMB3Rlc3QucGwxGzAZBgkqhkiG9w0BCQEWDHRlc3RAdGVzdC5wbDCBnzAN
BgkqhkiG9w0BAQEFAAOBjQAwgYkCgYEA0bHj//NYBoSP5cnhHI9bsW9sZGUA/m4l
LkYBhyfZhYXbNMAAM2wVeHOWKtMvNYLBgLuc68CfgtrhvSr3agNLQH0zrz1CSviO
wn/eOski4M4iH7hbopGIXwNAx1ktzwhTEVZYtE4N+xqnctwdzWku3h7ee7mjkLvt
TBcZ4H0lRoMCAwEAATANBgkqhkiG9w0BAQQFAAOBgQDCKyfr+MrAqcfN7LdlQXOR
fwQkj+u+dh4mFefVAzTwf3FdTm5J7JSRcKNZz+EEfLXAgP5FR8GGoNkHHDk7maOO
txiWKqAEYsGOcSzuLQboLKDvaPnY6gyGZAaKKBuxsKYr6+khVIy0ssXxmEI43str
/OWROK/cO7x84y6sVpBZCQ==
-----END CERTIFICATE-----
