Certificate:
    Data:
        Version: 1 (0x0)
        Serial Number: 4661 (0x1235)
    Signature Algorithm: md5WithRSAEncryption
        Issuer: C=pl, ST=sl, L=ka, CN=test.pl/emailAddress=test@test.pl
        Validity
            Not Before: Jul  2 14:46:48 2020 GMT
            Not After : Jul  2 14:46:48 2021 GMT
        Subject: C=PL, ST=sl, L=kato, CN=test.pl/emailAddress=test@test.pl
        Subject Public Key Info:
            Public Key Algorithm: rsaEncryption
                Public-Key: (1024 bit)
                Modulus:
                    00:cc:ec:eb:df:ad:61:24:72:79:75:90:2e:a9:46:
                    84:a2:58:ae:d2:36:d8:d8:fe:04:e9:bf:8f:4c:f2:
                    a2:7a:24:82:1c:c3:00:4d:86:b3:a1:4f:7c:8b:8f:
                    29:07:74:41:41:5e:dd:a5:db:9f:c6:a8:2f:b1:33:
                    2d:23:10:76:45:8e:40:0a:d6:2b:aa:6d:fd:12:3d:
                    cd:2f:bf:7b:20:57:17:0e:5e:76:88:20:ba:d7:c5:
                    35:b1:80:b7:fb:0f:51:2f:e5:a6:8b:99:8c:58:73:
                    fd:c5:62:a4:cb:d8:89:01:17:c9:f4:6f:c2:95:db:
                    ed:19:12:d9:7a:0e:a5:42:91
                Exponent: 65537 (0x10001)
    Signature Algorithm: md5WithRSAEncryption
         58:3f:d9:51:78:30:0a:8f:3d:30:08:f4:b9:ec:77:a6:af:8e:
         b4:79:13:b7:b6:ac:79:8d:6a:50:c3:f3:84:30:84:e9:15:20:
         a9:71:d1:ba:f6:89:95:0e:54:aa:bb:58:cc:5a:e5:3d:ae:8f:
         b4:22:27:03:a2:5a:e7:c8:42:54:23:11:cf:65:b8:48:71:d9:
         3e:df:dc:4a:4d:8e:07:0f:ec:3c:b6:83:49:25:c4:9e:25:8b:
         c6:c9:af:47:75:1a:f9:20:ed:6e:19:51:4e:53:e5:58:e7:8f:
         27:53:43:12:93:ab:13:84:28:81:ed:35:e2:21:04:15:9d:19:
         82:ad
-----BEGIN CERTIFICATE-----
MIICHjCCAYcCAhI1MA0GCSqGSIb3DQEBBAUAMFYxCzAJBgNVBAYTAnBsMQswCQYD
VQQIDAJzbDELMAkGA1UEBwwCa2ExEDAOBgNVBAMMB3Rlc3QucGwxGzAZBgkqhkiG
9w0BCQEWDHRlc3RAdGVzdC5wbDAeFw0yMDA3MDIxNDQ2NDhaFw0yMTA3MDIxNDQ2
NDhaMFgxCzAJBgNVBAYTAlBMMQswCQYDVQQIDAJzbDENMAsGA1UEBwwEa2F0bzEQ
MA4GA1UEAwwHdGVzdC5wbDEbMBkGCSqGSIb3DQEJARYMdGVzdEB0ZXN0LnBsMIGf
MA0GCSqGSIb3DQEBAQUAA4GNADCBiQKBgQDM7OvfrWEkcnl1kC6pRoSiWK7SNtjY
/gTpv49M8qJ6JIIcwwBNhrOhT3yLjykHdEFBXt2l25/GqC+xMy0jEHZFjkAK1iuq
bf0SPc0vv3sgVxcOXnaIILrXxTWxgLf7D1Ev5aaLmYxYc/3FYqTL2IkBF8n0b8KV
2+0ZEtl6DqVCkQIDAQABMA0GCSqGSIb3DQEBBAUAA4GBAFg/2VF4MAqPPTAI9Lns
d6avjrR5E7e2rHmNalDD84QwhOkVIKlx0br2iZUOVKq7WMxa5T2uj7QiJwOiWufI
QlQjEc9luEhx2T7f3EpNjgcP7Dy2g0klxJ4li8bJr0d1Gvkg7W4ZUU5T5VjnjydT
QxKTqxOEKIHtNeIhBBWdGYKt
-----END CERTIFICATE-----
