Certificate:
    Data:
        Version: 1 (0x0)
        Serial Number: 4662 (0x1236)
    Signature Algorithm: md5WithRSAEncryption
        Issuer: C=pl, ST=sl, L=ka, CN=test.pl/emailAddress=test@test.pl
        Validity
            Not Before: Jul  2 15:00:44 2020 GMT
            Not After : Jul  2 15:00:44 2021 GMT
        Subject: C=PL, ST=Slaskie, L=kato, CN=test.pl
        Subject Public Key Info:
            Public Key Algorithm: rsaEncryption
                Public-Key: (1024 bit)
                Modulus:
                    00:cc:ec:eb:df:ad:61:24:72:79:75:90:2e:a9:46:
                    84:a2:58:ae:d2:36:d8:d8:fe:04:e9:bf:8f:4c:f2:
                    a2:7a:24:82:1c:c3:00:4d:86:b3:a1:4f:7c:8b:8f:
                    29:07:74:41:41:5e:dd:a5:db:9f:c6:a8:2f:b1:33:
                    2d:23:10:76:45:8e:40:0a:d6:2b:aa:6d:fd:12:3d:
                    cd:2f:bf:7b:20:57:17:0e:5e:76:88:20:ba:d7:c5:
                    35:b1:80:b7:fb:0f:51:2f:e5:a6:8b:99:8c:58:73:
                    fd:c5:62:a4:cb:d8:89:01:17:c9:f4:6f:c2:95:db:
                    ed:19:12:d9:7a:0e:a5:42:91
                Exponent: 65537 (0x10001)
    Signature Algorithm: md5WithRSAEncryption
         5d:8d:8a:8f:fa:a0:68:44:6d:55:37:18:1f:0b:66:e1:f9:97:
         40:0a:51:8f:21:bb:91:bc:8c:3d:7a:d7:bc:7e:36:01:d3:36:
         78:df:27:76:e9:41:ed:7c:00:5a:4e:37:81:ac:fa:19:4f:7d:
         fe:54:87:85:03:6b:16:cc:5c:2d:21:a6:7b:a7:53:97:43:4b:
         65:97:09:ca:5b:30:fa:51:50:90:c9:75:1f:d7:79:40:4f:2b:
         13:20:6e:2c:06:4e:75:45:21:15:03:b6:c8:30:59:32:0f:33:
         4c:bb:dc:01:78:43:e9:5c:47:a6:9a:2f:d1:b3:5f:7a:a8:aa:
         d4:ca
-----BEGIN CERTIFICATE-----
MIICBjCCAW8CAhI2MA0GCSqGSIb3DQEBBAUAMFYxCzAJBgNVBAYTAnBsMQswCQYD
VQQIDAJzbDELMAkGA1UEBwwCa2ExEDAOBgNVBAMMB3Rlc3QucGwxGzAZBgkqhkiG
9w0BCQEWDHRlc3RAdGVzdC5wbDAeFw0yMDA3MDIxNTAwNDRaFw0yMTA3MDIxNTAw
NDRaMEAxCzAJBgNVBAYTAlBMMRAwDgYDVQQIDAdTbGFza2llMQ0wCwYDVQQHDARr
YXRvMRAwDgYDVQQDDAd0ZXN0LnBsMIGfMA0GCSqGSIb3DQEBAQUAA4GNADCBiQKB
gQDM7OvfrWEkcnl1kC6pRoSiWK7SNtjY/gTpv49M8qJ6JIIcwwBNhrOhT3yLjykH
dEFBXt2l25/GqC+xMy0jEHZFjkAK1iuqbf0SPc0vv3sgVxcOXnaIILrXxTWxgLf7
D1Ev5aaLmYxYc/3FYqTL2IkBF8n0b8KV2+0ZEtl6DqVCkQIDAQABMA0GCSqGSIb3
DQEBBAUAA4GBAF2Nio/6oGhEbVU3GB8LZuH5l0AKUY8hu5G8jD1617x+NgHTNnjf
J3bpQe18AFpON4Gs+hlPff5Uh4UDaxbMXC0hpnunU5dDS2WXCcpbMPpRUJDJdR/X
eUBPKxMgbiwGTnVFIRUDtsgwWTIPM0y73AF4Q+lcR6aaL9GzX3qoqtTK
-----END CERTIFICATE-----
